Certificate:
    Data:
        Version: 1 (0x0)
        Serial Number: 10363097116642171248 (0x8fd11debea54d970)
    Signature Algorithm: sha256WithRSAEncryption
        Issuer: C=UK, L=Warlingham, O=sb, CN=https://localhost:9001
        Validity
            Not Before: Mar  7 05:50:53 2019 GMT
            Not After : Mar  6 05:50:53 2020 GMT
        Subject: C=UK, L=Warlingham, O=sb, CN=https://localhost:9001
        Subject Public Key Info:
            Public Key Algorithm: rsaEncryption
                Public-Key: (2048 bit)
                Modulus:
                    00:e6:72:58:ab:0f:ca:da:29:ee:a1:37:46:22:8d:
                    3e:22:76:32:45:cf:56:a3:a1:07:76:0d:b1:f5:3e:
                    38:61:a0:b6:cd:e9:35:3b:f2:37:35:11:64:6d:f8:
                    72:9e:45:02:fe:9d:f8:47:b0:0e:99:ab:ec:67:91:
                    d2:a2:83:7a:00:84:ab:8c:82:2c:25:bf:db:e0:93:
                    38:ca:9e:14:97:60:a3:05:b4:fe:c9:a2:95:4e:21:
                    67:82:c6:38:1c:a4:e9:b5:55:75:10:4a:f9:e8:26:
                    82:71:c2:ca:3d:75:76:da:5e:0c:a0:0b:e6:7b:80:
                    ec:22:1a:12:18:57:d4:d9:b9:b3:dc:61:37:95:09:
                    10:64:72:5d:fa:b4:ff:8b:27:69:ca:49:60:b4:d7:
                    27:6f:5a:ca:b9:f3:c1:2c:07:97:91:df:0d:75:24:
                    54:b3:8e:26:0e:0c:59:b7:82:85:73:fd:43:d8:52:
                    3a:c0:7f:d4:d2:a1:d2:18:1d:6e:4c:ff:e1:c1:0b:
                    68:ae:a9:03:34:cf:52:ee:76:a6:33:ff:89:d3:96:
                    58:68:7d:05:af:b9:9d:55:d3:36:12:ed:fc:3c:9f:
                    5e:21:f5:6a:3e:77:00:bf:d0:ca:32:0a:a2:fb:e6:
                    89:a4:b4:9b:5a:ea:2d:ac:34:7e:3b:92:35:20:18:
                    f1:bb
                Exponent: 65537 (0x10001)
    Signature Algorithm: sha256WithRSAEncryption
         76:d4:7e:b0:24:7c:87:18:48:d8:0f:0d:50:8a:15:5f:38:e0:
         97:a8:02:46:8b:3f:df:ca:24:62:2d:1a:32:57:43:b0:23:30:
         d4:1a:0f:14:6e:0e:1c:dd:74:15:6f:c1:e4:a4:d9:3a:99:87:
         a1:3d:bc:f5:ac:58:7e:da:7b:7b:23:66:38:d5:7e:7e:c6:9a:
         2f:95:8e:7b:e5:74:23:08:af:5b:f6:6e:58:bf:54:10:7a:af:
         63:6c:92:b5:3e:8d:0e:b8:42:74:f3:dd:ab:a2:29:1e:0f:46:
         65:e8:26:ea:7b:5c:c5:12:98:f6:46:b6:9b:33:dc:07:c4:f7:
         05:9f:81:2e:ae:cd:a1:91:14:44:6a:cb:50:40:db:c0:e6:a1:
         4b:b7:cb:24:78:a4:50:f5:31:30:d1:3a:5f:25:98:5e:b4:f9:
         ec:bf:77:49:00:de:fe:de:c2:45:d3:66:77:57:cd:ab:67:4b:
         33:89:1d:4c:2a:d8:74:04:a7:79:17:a6:7c:c8:48:d2:84:8b:
         62:91:0e:64:63:dd:26:ef:53:98:be:0e:72:17:bb:3f:64:58:
         8d:2d:12:4d:37:ea:b4:3e:e0:39:3b:ac:7c:86:80:52:2a:40:
         49:8a:62:81:d5:30:84:c2:2c:9d:b2:60:63:ed:8a:8d:3d:22:
         d2:f0:e3:d9
-----BEGIN CERTIFICATE-----
MIIDHDCCAgQCCQCP0R3r6lTZcDANBgkqhkiG9w0BAQsFADBQMQswCQYDVQQGEwJV
SzETMBEGA1UEBwwKV2FybGluZ2hhbTELMAkGA1UECgwCc2IxHzAdBgNVBAMMFmh0
dHBzOi8vbG9jYWxob3N0OjkwMDEwHhcNMTkwMzA3MDU1MDUzWhcNMjAwMzA2MDU1
MDUzWjBQMQswCQYDVQQGEwJVSzETMBEGA1UEBwwKV2FybGluZ2hhbTELMAkGA1UE
CgwCc2IxHzAdBgNVBAMMFmh0dHBzOi8vbG9jYWxob3N0OjkwMDEwggEiMA0GCSqG
SIb3DQEBAQUAA4IBDwAwggEKAoIBAQDmclirD8raKe6hN0YijT4idjJFz1ajoQd2
DbH1PjhhoLbN6TU78jc1EWRt+HKeRQL+nfhHsA6Zq+xnkdKig3oAhKuMgiwlv9vg
kzjKnhSXYKMFtP7JopVOIWeCxjgcpOm1VXUQSvnoJoJxwso9dXbaXgygC+Z7gOwi
GhIYV9TZubPcYTeVCRBkcl36tP+LJ2nKSWC01ydvWsq588EsB5eR3w11JFSzjiYO
DFm3goVz/UPYUjrAf9TSodIYHW5M/+HBC2iuqQM0z1LudqYz/4nTllhofQWvuZ1V
0zYS7fw8n14h9Wo+dwC/0MoyCqL75omktJta6i2sNH47kjUgGPG7AgMBAAEwDQYJ
KoZIhvcNAQELBQADggEBAHbUfrAkfIcYSNgPDVCKFV844JeoAkaLP9/KJGItGjJX
Q7AjMNQaDxRuDhzddBVvweSk2TqZh6E9vPWsWH7ae3sjZjjVfn7Gmi+VjnvldCMI
r1v2bli/VBB6r2NskrU+jQ64QnTz3auiKR4PRmXoJup7XMUSmPZGtpsz3AfE9wWf
gS6uzaGRFERqy1BA28DmoUu3yyR4pFD1MTDROl8lmF60+ey/d0kA3v7ewkXTZndX
zatnSzOJHUwq2HQEp3kXpnzISNKEi2KRDmRj3SbvU5i+DnIXuz9kWI0tEk036rQ+
4Dk7rHyGgFIqQEmKYoHVMITCLJ2yYGPtio09ItLw49k=
-----END CERTIFICATE-----
